; Function Attrs: mustprogress uwtable
define void @_ZNK4lean11environment17for_each_constantERKSt8functionIFvRKNS_13constant_infoEEE(ptr noundef nonnull readonly align 8 captures(none) dereferenceable(8) %0, ptr noundef nonnull align 8 dereferenceable(32) %1) local_unnamed_addr #0 align 2 personality ptr @__gxx_personality_v0 {
  %3 = alloca %"class.std::function.23", align 8
  %4 = load ptr, ptr %0, align 8, !tbaa !3
  %5 = getelementptr inbounds nuw i8, ptr %4, i64 16
  %6 = load ptr, ptr %5, align 8, !tbaa !24
  call void @llvm.lifetime.start.p0(i64 32, ptr nonnull %3) #20
  %7 = ptrtoint ptr %1 to i64
  %8 = getelementptr inbounds nuw i8, ptr %3, i64 16
  %9 = getelementptr inbounds nuw i8, ptr %3, i64 24
  %10 = getelementptr inbounds nuw i8, ptr %3, i64 8
  store i64 0, ptr %10, align 8
  store i64 %7, ptr %3, align 8, !tbaa !120
  store ptr @"_ZNSt17_Function_handlerIFvP11lean_objectS1_EZNK4lean11environment17for_each_constantERKSt8functionIFvRKNS3_13constant_infoEEEE3$_0E9_M_invokeERKSt9_Any_dataOS1_SI_", ptr %9, align 8, !tbaa !122
  store ptr @"_ZNSt17_Function_handlerIFvP11lean_objectS1_EZNK4lean11environment17for_each_constantERKSt8functionIFvRKNS3_13constant_infoEEEE3$_0E10_M_managerERSt9_Any_dataRKSF_St18_Manager_operation", ptr %8, align 8, !tbaa !94
  invoke void @_ZN4lean12smap_foreachEP11lean_objectRKSt8functionIFvS1_S1_EE(ptr noundef %6, ptr noundef nonnull align 8 dereferenceable(32) %3)
          to label %11 unwind label %18

11:                                               ; preds = %2
  %12 = load ptr, ptr %8, align 8, !tbaa !94
  %.not.i = icmp eq ptr %12, null
  br i1 %.not.i, label %_ZNSt14_Function_baseD2Ev.exit, label %13

13:                                               ; preds = %11
  %14 = invoke noundef zeroext i1 %12(ptr noundef nonnull align 8 dereferenceable(32) %3, ptr noundef nonnull align 8 dereferenceable(32) %3, i32 noundef 3)
          to label %_ZNSt14_Function_baseD2Ev.exit unwind label %15

15:                                               ; preds = %13
  %16 = landingpad { ptr, i32 }
          catch ptr null
  %17 = extractvalue { ptr, i32 } %16, 0
  call void @__clang_call_terminate(ptr %17) #23
  unreachable

_ZNSt14_Function_baseD2Ev.exit:                   ; preds = %11, %13
  call void @llvm.lifetime.end.p0(i64 32, ptr nonnull %3) #20
  ret void

18:                                               ; preds = %2
  %19 = landingpad { ptr, i32 }
          cleanup
  %20 = load ptr, ptr %8, align 8, !tbaa !94
  %.not.i3 = icmp eq ptr %20, null
  br i1 %.not.i3, label %_ZNSt14_Function_baseD2Ev.exit4, label %21

21:                                               ; preds = %18
  %22 = invoke noundef zeroext i1 %20(ptr noundef nonnull align 8 dereferenceable(32) %3, ptr noundef nonnull align 8 dereferenceable(32) %3, i32 noundef 3)
          to label %_ZNSt14_Function_baseD2Ev.exit4 unwind label %23

23:                                               ; preds = %21
  %24 = landingpad { ptr, i32 }
          catch ptr null
  %25 = extractvalue { ptr, i32 } %24, 0
  call void @__clang_call_terminate(ptr %25) #23
  unreachable

_ZNSt14_Function_baseD2Ev.exit4:                  ; preds = %18, %21
  call void @llvm.lifetime.end.p0(i64 32, ptr nonnull %3) #20
  resume { ptr, i32 } %19
}